; ModuleID = '30/2755.c'
source_filename = "30/2755.c"
target datalayout = "e-m:e-p270:32:32-p271:32:32-p272:64:64-i64:64-f80:128-n8:16:32:64-S128"
target triple = "x86_64-pc-linux-gnu"

@.str = private unnamed_addr constant [3 x i8] c"%d\00", align 1
@.str.1 = private unnamed_addr constant [4 x i8] c"%d\0A\00", align 1

; Function Attrs: noinline nounwind uwtable
define dso_local i32 @main() #0 {
  %1 = alloca i32, align 4
  %2 = alloca i32, align 4
  %3 = alloca i32, align 4
  %4 = alloca i32, align 4
  %5 = alloca i32, align 4
  %6 = alloca i32, align 4
  %7 = alloca i32, align 4
  %8 = alloca i32, align 4
  %9 = alloca [3 x i32], align 4
  store i32 0, i32* %1, align 4
  store i32 0, i32* %3, align 4
  store i32 0, i32* %6, align 4
  %10 = call i32 (i8*, ...) @__isoc99_scanf(i8* getelementptr inbounds ([3 x i8], [3 x i8]* @.str, i64 0, i64 0), i32* %2)
  store i32 1, i32* %5, align 4
  br label %11

11:                                               ; preds = %59, %0
  %12 = load i32, i32* %5, align 4
  %13 = load i32, i32* %2, align 4
  %14 = icmp sle i32 %12, %13
  br i1 %14, label %15, label %62

15:                                               ; preds = %11
  %16 = load i32, i32* %5, align 4
  %17 = srem i32 %16, 7
  %18 = icmp ne i32 %17, 0
  br i1 %18, label %19, label %58

19:                                               ; preds = %15
  %20 = load i32, i32* %5, align 4
  store i32 %20, i32* %7, align 4
  %21 = load i32, i32* %7, align 4
  %22 = sitofp i32 %21 to double
  %23 = call double @log10(double %22) #3
  %24 = fptosi double %23 to i32
  store i32 %24, i32* %8, align 4
  store i32 0, i32* %4, align 4
  br label %25

25:                                               ; preds = %45, %19
  %26 = load i32, i32* %4, align 4
  %27 = load i32, i32* %7, align 4
  %28 = icmp slt i32 %26, %27
  br i1 %28, label %29, label %48

29:                                               ; preds = %25
  %30 = load i32, i32* %7, align 4
  %31 = srem i32 %30, 10
  %32 = load i32, i32* %4, align 4
  %33 = sext i32 %32 to i64
  %34 = getelementptr inbounds [3 x i32], [3 x i32]* %9, i64 0, i64 %33
  store i32 %31, i32* %34, align 4
  %35 = load i32, i32* %4, align 4
  %36 = sext i32 %35 to i64
  %37 = getelementptr inbounds [3 x i32], [3 x i32]* %9, i64 0, i64 %36
  %38 = load i32, i32* %37, align 4
  %39 = icmp eq i32 %38, 7
  br i1 %39, label %40, label %41

40:                                               ; preds = %29
  store i32 1, i32* %6, align 4
  br label %48

41:                                               ; preds = %29
  store i32 0, i32* %6, align 4
  br label %42

42:                                               ; preds = %41
  %43 = load i32, i32* %7, align 4
  %44 = sdiv i32 %43, 10
  store i32 %44, i32* %7, align 4
  br label %45

45:                                               ; preds = %42
  %46 = load i32, i32* %4, align 4
  %47 = add nsw i32 %46, 1
  store i32 %47, i32* %4, align 4
  br label %25

48:                                               ; preds = %40, %25
  %49 = load i32, i32* %6, align 4
  %50 = icmp eq i32 %49, 0
  br i1 %50, label %51, label %57

51:                                               ; preds = %48
  %52 = load i32, i32* %3, align 4
  %53 = load i32, i32* %5, align 4
  %54 = load i32, i32* %5, align 4
  %55 = mul nsw i32 %53, %54
  %56 = add nsw i32 %52, %55
  store i32 %56, i32* %3, align 4
  br label %57

57:                                               ; preds = %51, %48
  br label %58

58:                                               ; preds = %57, %15
  br label %59

59:                                               ; preds = %58
  %60 = load i32, i32* %5, align 4
  %61 = add nsw i32 %60, 1
  store i32 %61, i32* %5, align 4
  br label %11

62:                                               ; preds = %11
  %63 = load i32, i32* %3, align 4
  %64 = call i32 (i8*, ...) @printf(i8* getelementptr inbounds ([4 x i8], [4 x i8]* @.str.1, i64 0, i64 0), i32 %63)
  ret i32 0
}

declare dso_local i32 @__isoc99_scanf(i8*, ...) #1

; Function Attrs: nounwind
declare dso_local double @log10(double) #2

declare dso_local i32 @printf(i8*, ...) #1


!llvm.module.flags = !{!0}
!llvm.ident = !{!1}

!0 = !{i32 1, !"wchar_size", i32 4}
!1 = !{!"clang version 10.0.0-4ubuntu1 "}
